; Function Attrs: nounwind uwtable
define noalias noundef nonnull ptr @l_Lean_PrettyPrinter_Delaborator_TopDownAnalyze_checkKnowsType(ptr noundef readonly captures(none) %0, ptr noundef readnone captures(none) %1, ptr noundef readnone captures(none) %2, ptr noundef readnone captures(none) %3, ptr noundef readnone captures(none) %4, ptr noundef readnone captures(none) %5, ptr noundef %6) local_unnamed_addr #1 {
  %8 = getelementptr inbounds nuw i8, ptr %0, i64 16
  %9 = load i8, ptr %8, align 1, !tbaa !14
  %10 = icmp eq i8 %9, 0
  br i1 %10, label %11, label %16

11:                                               ; preds = %7
  %12 = load ptr, ptr @l_Lean_PrettyPrinter_Delaborator_TopDownAnalyze_checkKnowsType___closed__2, align 8, !tbaa !11
  tail call void @lean_inc_heartbeat() #7
  %13 = tail call noalias ptr @mi_malloc_small(i64 noundef 24) #7
  %14 = icmp eq ptr %13, null
  br i1 %14, label %15, label %lean_alloc_ctor.exit

15:                                               ; preds = %11
  tail call void @lean_internal_panic_out_of_memory() #8
  unreachable

16:                                               ; preds = %7
  tail call void @lean_inc_heartbeat() #7
  %17 = tail call noalias ptr @mi_malloc_small(i64 noundef 24) #7
  %18 = icmp eq ptr %17, null
  br i1 %18, label %19, label %lean_alloc_ctor.exit

19:                                               ; preds = %16
  tail call void @lean_internal_panic_out_of_memory() #8
  unreachable

lean_alloc_ctor.exit:                             ; preds = %16, %11
  %.sink19 = phi ptr [ %13, %11 ], [ %17, %16 ]
  %.sink16 = phi i32 [ 16908312, %11 ], [ 131096, %16 ]
  %.sink = phi ptr [ %12, %11 ], [ inttoptr (i64 1 to ptr), %16 ]
  %20 = getelementptr inbounds nuw i8, ptr %.sink19, i64 4
  store i32 1, ptr %.sink19, align 4, !tbaa !8
  store i32 %.sink16, ptr %20, align 4
  %21 = getelementptr inbounds nuw i8, ptr %.sink19, i64 8
  store ptr %.sink, ptr %21, align 8, !tbaa !11
  %22 = getelementptr inbounds nuw i8, ptr %.sink19, i64 16
  store ptr %6, ptr %22, align 8, !tbaa !11
  ret ptr %.sink19
}